target datalayout = "e-m:e-p270:32:32-p271:32:32-p272:64:64-i64:64-i128:128-f80:128-n8:16:32:64-S128"
target triple = "x86_64-pc-linux-gnu"

%struct.expert_field = type { i32, i32 }

@ei_gmr1_missing_mandatory_element = internal global %struct.expert_field zeroinitializer, align 4
@.str.273 = private unnamed_addr constant [62 x i8] c"Missing Mandatory element %s%s, rest of dissection is suspect\00", align 1
@.str.274 = private unnamed_addr constant [1 x i8] zeroinitializer, align 1

; Function Attrs: null_pointer_is_valid sspstrong uwtable
define internal void @gmr1_rr_msg_ass_cmd_1(ptr noundef %0, ptr noundef %1, ptr noundef %2, i32 noundef %3, i32 noundef %4) #1 {
  %6 = alloca ptr, align 8
  %7 = alloca ptr, align 8
  %8 = alloca ptr, align 8
  %9 = alloca i32, align 4
  %10 = alloca i32, align 4
  %11 = alloca i32, align 4
  %12 = alloca i32, align 4
  %13 = alloca i32, align 4
  %14 = alloca i32, align 4
  store ptr %0, ptr %6, align 8
  store ptr %1, ptr %7, align 8
  store ptr %2, ptr %8, align 8
  store i32 %3, ptr %9, align 4
  store i32 %4, ptr %10, align 4
  call void @llvm.lifetime.start.p0(i64 4, ptr %11) #5
  call void @llvm.lifetime.start.p0(i64 4, ptr %12) #5
  call void @llvm.lifetime.start.p0(i64 4, ptr %13) #5
  %15 = load i32, ptr %9, align 4
  store i32 %15, ptr %11, align 4
  %16 = load i32, ptr %10, align 4
  store i32 %16, ptr %12, align 4
  store i32 0, ptr %13, align 4
  %17 = load i32, ptr %12, align 4
  %18 = icmp sgt i32 %17, 0
  br i1 %18, label %19, label %34

19:                                               ; preds = %5
  %20 = load ptr, ptr %6, align 8
  %21 = load ptr, ptr %7, align 8
  %22 = load ptr, ptr %8, align 8
  %23 = load i32, ptr %11, align 4
  %24 = call zeroext i16 @elem_v(ptr noundef %20, ptr noundef %21, ptr noundef %22, i32 noundef 15, i32 noundef 0, i32 noundef %23, ptr noundef null)
  %25 = zext i16 %24 to i32
  store i32 %25, ptr %13, align 4
  %26 = icmp sgt i32 %25, 0
  br i1 %26, label %27, label %34

27:                                               ; preds = %19
  %28 = load i32, ptr %13, align 4
  %29 = load i32, ptr %11, align 4
  %30 = add i32 %29, %28
  store i32 %30, ptr %11, align 4
  %31 = load i32, ptr %13, align 4
  %32 = load i32, ptr %12, align 4
  %33 = sub i32 %32, %31
  store i32 %33, ptr %12, align 4
  br label %41

34:                                               ; preds = %19, %5
  %35 = load ptr, ptr %7, align 8
  %36 = load ptr, ptr %8, align 8
  %37 = load ptr, ptr %6, align 8
  %38 = load i32, ptr %11, align 4
  %39 = call ptr @get_gsm_a_msg_string(i32 noundef 15, i32 noundef 0)
  %40 = call ptr (ptr, ptr, ptr, ptr, i32, i32, ptr, ...) @proto_tree_add_expert_format(ptr noundef %35, ptr noundef %36, ptr noundef @ei_gmr1_missing_mandatory_element, ptr noundef %37, i32 noundef %38, i32 noundef 0, ptr noundef @.str.273, ptr noundef %39, ptr noundef @.str.274)
  br label %41

41:                                               ; preds = %34, %27
  %42 = load i32, ptr %12, align 4
  %43 = icmp sle i32 %42, 0
  br i1 %43, label %44, label %45

44:                                               ; preds = %41
  store i32 1, ptr %14, align 4
  br label %137

45:                                               ; preds = %41
  %46 = load ptr, ptr %6, align 8
  %47 = load ptr, ptr %7, align 8
  %48 = load ptr, ptr %8, align 8
  %49 = load i32, ptr %11, align 4
  %50 = call zeroext i16 @elem_tv(ptr noundef %46, ptr noundef %47, ptr noundef %48, i8 noundef zeroext 125, i32 noundef 15, i32 noundef 8, i32 noundef %49, ptr noundef null)
  %51 = zext i16 %50 to i32
  store i32 %51, ptr %13, align 4
  %52 = icmp sgt i32 %51, 0
  br i1 %52, label %53, label %60

53:                                               ; preds = %45
  %54 = load i32, ptr %13, align 4
  %55 = load i32, ptr %11, align 4
  %56 = add i32 %55, %54
  store i32 %56, ptr %11, align 4
  %57 = load i32, ptr %13, align 4
  %58 = load i32, ptr %12, align 4
  %59 = sub i32 %58, %57
  store i32 %59, ptr %12, align 4
  br label %60

60:                                               ; preds = %53, %45
  %61 = load i32, ptr %12, align 4
  %62 = icmp sle i32 %61, 0
  br i1 %62, label %63, label %64

63:                                               ; preds = %60
  store i32 1, ptr %14, align 4
  br label %137

64:                                               ; preds = %60
  %65 = load ptr, ptr %6, align 8
  %66 = load ptr, ptr %7, align 8
  %67 = load ptr, ptr %8, align 8
  %68 = load i32, ptr %11, align 4
  %69 = call zeroext i16 @elem_tv(ptr noundef %65, ptr noundef %66, ptr noundef %67, i8 noundef zeroext 127, i32 noundef 15, i32 noundef 12, i32 noundef %68, ptr noundef null)
  %70 = zext i16 %69 to i32
  store i32 %70, ptr %13, align 4
  %71 = icmp sgt i32 %70, 0
  br i1 %71, label %72, label %79

72:                                               ; preds = %64
  %73 = load i32, ptr %13, align 4
  %74 = load i32, ptr %11, align 4
  %75 = add i32 %74, %73
  store i32 %75, ptr %11, align 4
  %76 = load i32, ptr %13, align 4
  %77 = load i32, ptr %12, align 4
  %78 = sub i32 %77, %76
  store i32 %78, ptr %12, align 4
  br label %79

79:                                               ; preds = %72, %64
  %80 = load i32, ptr %12, align 4
  %81 = icmp sle i32 %80, 0
  br i1 %81, label %82, label %83

82:                                               ; preds = %79
  store i32 1, ptr %14, align 4
  br label %137

83:                                               ; preds = %79
  %84 = load ptr, ptr %6, align 8
  %85 = load ptr, ptr %7, align 8
  %86 = load ptr, ptr %8, align 8
  %87 = load i32, ptr %11, align 4
  %88 = call zeroext i16 @elem_tv(ptr noundef %84, ptr noundef %85, ptr noundef %86, i8 noundef zeroext 99, i32 noundef 15, i32 noundef 1, i32 noundef %87, ptr noundef null)
  %89 = zext i16 %88 to i32
  store i32 %89, ptr %13, align 4
  %90 = icmp sgt i32 %89, 0
  br i1 %90, label %91, label %98

91:                                               ; preds = %83
  %92 = load i32, ptr %13, align 4
  %93 = load i32, ptr %11, align 4
  %94 = add i32 %93, %92
  store i32 %94, ptr %11, align 4
  %95 = load i32, ptr %13, align 4
  %96 = load i32, ptr %12, align 4
  %97 = sub i32 %96, %95
  store i32 %97, ptr %12, align 4
  br label %98

98:                                               ; preds = %91, %83
  %99 = load i32, ptr %12, align 4
  %100 = icmp sle i32 %99, 0
  br i1 %100, label %101, label %102

101:                                              ; preds = %98
  store i32 1, ptr %14, align 4
  br label %137

102:                                              ; preds = %98
  %103 = load ptr, ptr %6, align 8
  %104 = load ptr, ptr %7, align 8
  %105 = load ptr, ptr %8, align 8
  %106 = load i32, ptr %11, align 4
  %107 = call zeroext i16 @elem_tv(ptr noundef %103, ptr noundef %104, ptr noundef %105, i8 noundef zeroext 113, i32 noundef 15, i32 noundef 19, i32 noundef %106, ptr noundef null)
  %108 = zext i16 %107 to i32
  store i32 %108, ptr %13, align 4
  %109 = icmp sgt i32 %108, 0
  br i1 %109, label %110, label %117

110:                                              ; preds = %102
  %111 = load i32, ptr %13, align 4
  %112 = load i32, ptr %11, align 4
  %113 = add i32 %112, %111
  store i32 %113, ptr %11, align 4
  %114 = load i32, ptr %13, align 4
  %115 = load i32, ptr %12, align 4
  %116 = sub i32 %115, %114
  store i32 %116, ptr %12, align 4
  br label %117

117:                                              ; preds = %110, %102
  %118 = load i32, ptr %12, align 4
  %119 = icmp sle i32 %118, 0
  br i1 %119, label %120, label %121

120:                                              ; preds = %117
  store i32 1, ptr %14, align 4
  br label %137

121:                                              ; preds = %117
  %122 = load ptr, ptr %6, align 8
  %123 = load ptr, ptr %7, align 8
  %124 = load ptr, ptr %8, align 8
  %125 = load i32, ptr %11, align 4
  %126 = call zeroext i16 @elem_tv_short(ptr noundef %122, ptr noundef %123, ptr noundef %124, i8 noundef zeroext -112, i32 noundef 15, i32 noundef 2, i32 noundef %125, ptr noundef null)
  %127 = zext i16 %126 to i32
  store i32 %127, ptr %13, align 4
  %128 = icmp sgt i32 %127, 0
  br i1 %128, label %129, label %136

129:                                              ; preds = %121
  %130 = load i32, ptr %13, align 4
  %131 = load i32, ptr %11, align 4
  %132 = add i32 %131, %130
  store i32 %132, ptr %11, align 4
  %133 = load i32, ptr %13, align 4
  %134 = load i32, ptr %12, align 4
  %135 = sub i32 %134, %133
  store i32 %135, ptr %12, align 4
  br label %136

136:                                              ; preds = %129, %121
  store i32 0, ptr %14, align 4
  br label %137

137:                                              ; preds = %136, %120, %101, %82, %63, %44
  call void @llvm.lifetime.end.p0(i64 4, ptr %13) #5
  call void @llvm.lifetime.end.p0(i64 4, ptr %12) #5
  call void @llvm.lifetime.end.p0(i64 4, ptr %11) #5
  %138 = load i32, ptr %14, align 4
  switch i32 %138, label %140 [
    i32 0, label %139
    i32 1, label %139
  ]

139:                                              ; preds = %137, %137
  ret void

140:                                              ; preds = %137
  unreachable
}